; Function Attrs: nounwind uwtable
define noalias noundef nonnull ptr @l_Array_forIn_x27Unsafe_loop___at_Lean_Elab_Tactic_BVDecide_Frontend_Normalize_intToBitVecPass_replaceSize___spec__10___boxed(ptr noundef %0, ptr noundef %1, ptr noundef %2, ptr noundef %3, ptr noundef %4, ptr noundef %5, ptr noundef %6, ptr noundef %7, ptr noundef %8, ptr noundef %9, ptr noundef %10, ptr noundef %11, ptr noundef %12, ptr noundef %13, ptr noundef %14, ptr noundef %15) local_unnamed_addr #1 {
  %17 = getelementptr i8, ptr %2, i64 8
  %.val73 = load i64, ptr %17, align 8, !tbaa !12
  %18 = ptrtoint ptr %2 to i64
  %19 = and i64 %18, 1
  %.not = icmp eq i64 %19, 0
  br i1 %.not, label %20, label %lean_dec.exit45

20:                                               ; preds = %16
  %21 = load i32, ptr %2, align 4, !tbaa !4
  %22 = icmp sgt i32 %21, 1
  br i1 %22, label %23, label %25, !prof !11

23:                                               ; preds = %20
  %24 = add nsw i32 %21, -1
  store i32 %24, ptr %2, align 4, !tbaa !4
  br label %lean_dec.exit45

25:                                               ; preds = %20
  %.not.i = icmp eq i32 %21, 0
  br i1 %.not.i, label %lean_dec.exit45, label %26

26:                                               ; preds = %25
  tail call void @lean_dec_ref_cold(ptr noundef nonnull %2) #4
  br label %lean_dec.exit45

lean_dec.exit45:                                  ; preds = %26, %25, %23, %16
  %27 = getelementptr i8, ptr %3, i64 8
  %.val72 = load i64, ptr %27, align 8, !tbaa !12
  %28 = ptrtoint ptr %3 to i64
  %29 = and i64 %28, 1
  %.not74 = icmp eq i64 %29, 0
  br i1 %.not74, label %30, label %lean_dec.exit44

30:                                               ; preds = %lean_dec.exit45
  %31 = load i32, ptr %3, align 4, !tbaa !4
  %32 = icmp sgt i32 %31, 1
  br i1 %32, label %33, label %35, !prof !11

33:                                               ; preds = %30
  %34 = add nsw i32 %31, -1
  store i32 %34, ptr %3, align 4, !tbaa !4
  br label %lean_dec.exit44

35:                                               ; preds = %30
  %.not.i46 = icmp eq i32 %31, 0
  br i1 %.not.i46, label %lean_dec.exit44, label %36

36:                                               ; preds = %35
  tail call void @lean_dec_ref_cold(ptr noundef nonnull %3) #4
  br label %lean_dec.exit44

lean_dec.exit44:                                  ; preds = %36, %35, %33, %lean_dec.exit45
  %37 = getelementptr i8, ptr %4, i64 8
  %.val71 = load i64, ptr %37, align 8, !tbaa !12
  %38 = ptrtoint ptr %4 to i64
  %39 = and i64 %38, 1
  %.not75 = icmp eq i64 %39, 0
  br i1 %.not75, label %40, label %lean_dec.exit43

40:                                               ; preds = %lean_dec.exit44
  %41 = load i32, ptr %4, align 4, !tbaa !4
  %42 = icmp sgt i32 %41, 1
  br i1 %42, label %43, label %45, !prof !11

43:                                               ; preds = %40
  %44 = add nsw i32 %41, -1
  store i32 %44, ptr %4, align 4, !tbaa !4
  br label %lean_dec.exit43

45:                                               ; preds = %40
  %.not.i48 = icmp eq i32 %41, 0
  br i1 %.not.i48, label %lean_dec.exit43, label %46

46:                                               ; preds = %45
  tail call void @lean_dec_ref_cold(ptr noundef nonnull %4) #4
  br label %lean_dec.exit43

lean_dec.exit43:                                  ; preds = %46, %45, %43, %lean_dec.exit44
  %47 = getelementptr i8, ptr %7, i64 8
  %.val70 = load i64, ptr %47, align 8, !tbaa !12
  %48 = ptrtoint ptr %7 to i64
  %49 = and i64 %48, 1
  %.not76 = icmp eq i64 %49, 0
  br i1 %.not76, label %50, label %lean_dec.exit42

50:                                               ; preds = %lean_dec.exit43
  %51 = load i32, ptr %7, align 4, !tbaa !4
  %52 = icmp sgt i32 %51, 1
  br i1 %52, label %53, label %55, !prof !11

53:                                               ; preds = %50
  %54 = add nsw i32 %51, -1
  store i32 %54, ptr %7, align 4, !tbaa !4
  br label %lean_dec.exit42

55:                                               ; preds = %50
  %.not.i50 = icmp eq i32 %51, 0
  br i1 %.not.i50, label %lean_dec.exit42, label %56

56:                                               ; preds = %55
  tail call void @lean_dec_ref_cold(ptr noundef nonnull %7) #4
  br label %lean_dec.exit42

lean_dec.exit42:                                  ; preds = %56, %55, %53, %lean_dec.exit43
  %57 = getelementptr i8, ptr %8, i64 8
  %.val = load i64, ptr %57, align 8, !tbaa !12
  %58 = ptrtoint ptr %8 to i64
  %59 = and i64 %58, 1
  %.not77 = icmp eq i64 %59, 0
  br i1 %.not77, label %60, label %lean_dec.exit41

60:                                               ; preds = %lean_dec.exit42
  %61 = load i32, ptr %8, align 4, !tbaa !4
  %62 = icmp sgt i32 %61, 1
  br i1 %62, label %63, label %65, !prof !11

63:                                               ; preds = %60
  %64 = add nsw i32 %61, -1
  store i32 %64, ptr %8, align 4, !tbaa !4
  br label %lean_dec.exit41

65:                                               ; preds = %60
  %.not.i52 = icmp eq i32 %61, 0
  br i1 %.not.i52, label %lean_dec.exit41, label %66

66:                                               ; preds = %65
  tail call void @lean_dec_ref_cold(ptr noundef nonnull %8) #4
  br label %lean_dec.exit41

lean_dec.exit41:                                  ; preds = %66, %65, %63, %lean_dec.exit42
  %67 = tail call ptr @l_Array_forIn_x27Unsafe_loop___at_Lean_Elab_Tactic_BVDecide_Frontend_Normalize_intToBitVecPass_replaceSize___spec__10(ptr poison, ptr noundef %1, i64 noundef %.val73, i64 noundef %.val72, i64 noundef %.val71, ptr poison, ptr noundef %6, i64 noundef %.val70, i64 noundef %.val, ptr noundef %9, ptr poison, ptr poison, ptr poison, ptr poison, ptr poison, ptr noundef %15)
  %68 = ptrtoint ptr %14 to i64
  %69 = and i64 %68, 1
  %.not78 = icmp eq i64 %69, 0
  br i1 %.not78, label %70, label %lean_dec.exit40

70:                                               ; preds = %lean_dec.exit41
  %71 = load i32, ptr %14, align 4, !tbaa !4
  %72 = icmp sgt i32 %71, 1
  br i1 %72, label %73, label %75, !prof !11

73:                                               ; preds = %70
  %74 = add nsw i32 %71, -1
  store i32 %74, ptr %14, align 4, !tbaa !4
  br label %lean_dec.exit40

75:                                               ; preds = %70
  %.not.i54 = icmp eq i32 %71, 0
  br i1 %.not.i54, label %lean_dec.exit40, label %76

76:                                               ; preds = %75
  tail call void @lean_dec_ref_cold(ptr noundef nonnull %14) #4
  br label %lean_dec.exit40

lean_dec.exit40:                                  ; preds = %76, %75, %73, %lean_dec.exit41
  %77 = ptrtoint ptr %13 to i64
  %78 = and i64 %77, 1
  %.not79 = icmp eq i64 %78, 0
  br i1 %.not79, label %79, label %lean_dec.exit39

79:                                               ; preds = %lean_dec.exit40
  %80 = load i32, ptr %13, align 4, !tbaa !4
  %81 = icmp sgt i32 %80, 1
  br i1 %81, label %82, label %84, !prof !11

82:                                               ; preds = %79
  %83 = add nsw i32 %80, -1
  store i32 %83, ptr %13, align 4, !tbaa !4
  br label %lean_dec.exit39

84:                                               ; preds = %79
  %.not.i56 = icmp eq i32 %80, 0
  br i1 %.not.i56, label %lean_dec.exit39, label %85

85:                                               ; preds = %84
  tail call void @lean_dec_ref_cold(ptr noundef nonnull %13) #4
  br label %lean_dec.exit39

lean_dec.exit39:                                  ; preds = %85, %84, %82, %lean_dec.exit40
  %86 = ptrtoint ptr %12 to i64
  %87 = and i64 %86, 1
  %.not80 = icmp eq i64 %87, 0
  br i1 %.not80, label %88, label %lean_dec.exit38

88:                                               ; preds = %lean_dec.exit39
  %89 = load i32, ptr %12, align 4, !tbaa !4
  %90 = icmp sgt i32 %89, 1
  br i1 %90, label %91, label %93, !prof !11

91:                                               ; preds = %88
  %92 = add nsw i32 %89, -1
  store i32 %92, ptr %12, align 4, !tbaa !4
  br label %lean_dec.exit38

93:                                               ; preds = %88
  %.not.i58 = icmp eq i32 %89, 0
  br i1 %.not.i58, label %lean_dec.exit38, label %94

94:                                               ; preds = %93
  tail call void @lean_dec_ref_cold(ptr noundef nonnull %12) #4
  br label %lean_dec.exit38

lean_dec.exit38:                                  ; preds = %94, %93, %91, %lean_dec.exit39
  %95 = ptrtoint ptr %11 to i64
  %96 = and i64 %95, 1
  %.not81 = icmp eq i64 %96, 0
  br i1 %.not81, label %97, label %lean_dec.exit37

97:                                               ; preds = %lean_dec.exit38
  %98 = load i32, ptr %11, align 4, !tbaa !4
  %99 = icmp sgt i32 %98, 1
  br i1 %99, label %100, label %102, !prof !11

100:                                              ; preds = %97
  %101 = add nsw i32 %98, -1
  store i32 %101, ptr %11, align 4, !tbaa !4
  br label %lean_dec.exit37

102:                                              ; preds = %97
  %.not.i60 = icmp eq i32 %98, 0
  br i1 %.not.i60, label %lean_dec.exit37, label %103

103:                                              ; preds = %102
  tail call void @lean_dec_ref_cold(ptr noundef nonnull %11) #4
  br label %lean_dec.exit37

lean_dec.exit37:                                  ; preds = %103, %102, %100, %lean_dec.exit38
  %104 = ptrtoint ptr %10 to i64
  %105 = and i64 %104, 1
  %.not82 = icmp eq i64 %105, 0
  br i1 %.not82, label %106, label %lean_dec.exit36

106:                                              ; preds = %lean_dec.exit37
  %107 = load i32, ptr %10, align 4, !tbaa !4
  %108 = icmp sgt i32 %107, 1
  br i1 %108, label %109, label %111, !prof !11

109:                                              ; preds = %106
  %110 = add nsw i32 %107, -1
  store i32 %110, ptr %10, align 4, !tbaa !4
  br label %lean_dec.exit36

111:                                              ; preds = %106
  %.not.i62 = icmp eq i32 %107, 0
  br i1 %.not.i62, label %lean_dec.exit36, label %112

112:                                              ; preds = %111
  tail call void @lean_dec_ref_cold(ptr noundef nonnull %10) #4
  br label %lean_dec.exit36

lean_dec.exit36:                                  ; preds = %112, %111, %109, %lean_dec.exit37
  %113 = ptrtoint ptr %6 to i64
  %114 = and i64 %113, 1
  %.not83 = icmp eq i64 %114, 0
  br i1 %.not83, label %115, label %lean_dec.exit35

115:                                              ; preds = %lean_dec.exit36
  %116 = load i32, ptr %6, align 4, !tbaa !4
  %117 = icmp sgt i32 %116, 1
  br i1 %117, label %118, label %120, !prof !11

118:                                              ; preds = %115
  %119 = add nsw i32 %116, -1
  store i32 %119, ptr %6, align 4, !tbaa !4
  br label %lean_dec.exit35

120:                                              ; preds = %115
  %.not.i64 = icmp eq i32 %116, 0
  br i1 %.not.i64, label %lean_dec.exit35, label %121

121:                                              ; preds = %120
  tail call void @lean_dec_ref_cold(ptr noundef nonnull %6) #4
  br label %lean_dec.exit35

lean_dec.exit35:                                  ; preds = %121, %120, %118, %lean_dec.exit36
  %122 = ptrtoint ptr %5 to i64
  %123 = and i64 %122, 1
  %.not84 = icmp eq i64 %123, 0
  br i1 %.not84, label %124, label %lean_dec.exit34

124:                                              ; preds = %lean_dec.exit35
  %125 = load i32, ptr %5, align 4, !tbaa !4
  %126 = icmp sgt i32 %125, 1
  br i1 %126, label %127, label %129, !prof !11

127:                                              ; preds = %124
  %128 = add nsw i32 %125, -1
  store i32 %128, ptr %5, align 4, !tbaa !4
  br label %lean_dec.exit34

129:                                              ; preds = %124
  %.not.i66 = icmp eq i32 %125, 0
  br i1 %.not.i66, label %lean_dec.exit34, label %130

130:                                              ; preds = %129
  tail call void @lean_dec_ref_cold(ptr noundef nonnull %5) #4
  br label %lean_dec.exit34

lean_dec.exit34:                                  ; preds = %130, %129, %127, %lean_dec.exit35
  %131 = ptrtoint ptr %0 to i64
  %132 = and i64 %131, 1
  %.not85 = icmp eq i64 %132, 0
  br i1 %.not85, label %133, label %lean_dec.exit

133:                                              ; preds = %lean_dec.exit34
  %134 = load i32, ptr %0, align 4, !tbaa !4
  %135 = icmp sgt i32 %134, 1
  br i1 %135, label %136, label %138, !prof !11

136:                                              ; preds = %133
  %137 = add nsw i32 %134, -1
  store i32 %137, ptr %0, align 4, !tbaa !4
  br label %lean_dec.exit

138:                                              ; preds = %133
  %.not.i68 = icmp eq i32 %134, 0
  br i1 %.not.i68, label %lean_dec.exit, label %139

139:                                              ; preds = %138
  tail call void @lean_dec_ref_cold(ptr noundef nonnull %0) #4
  br label %lean_dec.exit

lean_dec.exit:                                    ; preds = %139, %138, %136, %lean_dec.exit34
  ret ptr %67
}